#include <math.h>
#include <stdio.h>
#include <stdlib.h>
#include <string.h>

int main()
{

char a, b, c, d, e;
a=getchar();
b=getchar();
c=getchar();
d=getchar();
e=getchar();
if( e >= '0' && e <= '9') putchar(e);
if( d >= '0' && d <= '9') putchar(d);
if( c >= '0' && c <= '9') putchar(c);
if( b >= '0' && b <= '9') putchar(b);
if( a >= '0' && a <= '9') putchar(a);
}
